target datalayout = "e-m:e-p270:32:32-p271:32:32-p272:64:64-i64:64-i128:128-f80:128-n8:16:32:64-S128"
target triple = "x86_64-unknown-linux-gnu"

%class.btAlignedObjectArray.12 = type <{ %class.btAlignedAllocator.13, [3 x i8], i32, i32, [4 x i8], ptr, i8, [7 x i8] }>
%class.btAlignedAllocator.13 = type { i8 }
%struct.btDbvtBroadphase = type { %class.btBroadphaseInterface, [2 x %struct.btDbvt], [3 x ptr], ptr, float, i32, i32, i32, i32, i32, i32, i32, i32, float, i32, i32, i32, i8, i8, i8, i8, %class.btAlignedObjectArray.0 }
%class.btBroadphaseInterface = type { ptr }
%struct.btDbvt = type { ptr, ptr, i32, i32, i32, [4 x i8], %class.btAlignedObjectArray }
%class.btAlignedObjectArray = type <{ %class.btAlignedAllocator, [3 x i8], i32, i32, [4 x i8], ptr, i8, [7 x i8] }>
%class.btAlignedAllocator = type { i8 }
%class.btAlignedObjectArray.0 = type <{ %class.btAlignedAllocator.1, [3 x i8], i32, i32, [4 x i8], ptr, i8, [7 x i8] }>
%class.btAlignedAllocator.1 = type { i8 }
%class.btVector3 = type { [4 x float] }
%"struct.btDbvt::ICollide" = type { ptr }
%struct.BroadphaseRayTester = type { %"struct.btDbvt::ICollide", ptr }
%struct.btBroadphaseRayCallback = type { %struct.btBroadphaseAabbCallback, %class.btVector3, [3 x i32], float }
%struct.btBroadphaseAabbCallback = type { ptr }

; Function Attrs: mustprogress nounwind uwtable
define linkonce_odr dso_local void @_ZN6btDbvt8ICollideD2Ev(ptr noundef nonnull align 8 dereferenceable(8) %this) unnamed_addr #1 comdat align 2 {
entry:
  %this.addr = alloca ptr, align 8
  store ptr %this, ptr %this.addr, align 8
  ret void
}

; Function Attrs: mustprogress nounwind uwtable
define linkonce_odr dso_local void @_ZN6btDbvt8ICollideC2Ev(ptr noundef nonnull align 8 dereferenceable(8) %this) unnamed_addr #1 comdat align 2 {
entry:
  %this.addr = alloca ptr, align 8
  store ptr %this, ptr %this.addr, align 8
  %this1 = load ptr, ptr %this.addr, align 8
  store ptr getelementptr inbounds ({ [10 x ptr] }, ptr @_ZTVN6btDbvt8ICollideE, i32 0, i32 0, i32 2), ptr %this1, align 8
  ret void
}

; Function Attrs: mustprogress nounwind uwtable
define linkonce_odr dso_local void @_ZN19BroadphaseRayTesterD2Ev(ptr noundef nonnull align 8 dereferenceable(16) %this) unnamed_addr #1 comdat align 2 {
entry:
  %this.addr = alloca ptr, align 8
  store ptr %this, ptr %this.addr, align 8
  %this1 = load ptr, ptr %this.addr, align 8
  call void @_ZN6btDbvt8ICollideD2Ev(ptr noundef nonnull align 8 dereferenceable(8) %this1) #10
  ret void
}

; Function Attrs: mustprogress nounwind uwtable
define linkonce_odr dso_local noundef nonnull align 8 dereferenceable(25) ptr @_ZN20btAlignedObjectArrayIS_IPK10btDbvtNodeEEixEi(ptr noundef nonnull align 8 dereferenceable(25) %this, i32 noundef %n) #1 comdat align 2 {
entry:
  %this.addr = alloca ptr, align 8
  %n.addr = alloca i32, align 4
  store ptr %this, ptr %this.addr, align 8
  store i32 %n, ptr %n.addr, align 4
  %this1 = load ptr, ptr %this.addr, align 8
  %m_data = getelementptr inbounds %class.btAlignedObjectArray.0, ptr %this1, i32 0, i32 5
  %0 = load ptr, ptr %m_data, align 8
  %1 = load i32, ptr %n.addr, align 4
  %idxprom = sext i32 %1 to i64
  %arrayidx = getelementptr inbounds %class.btAlignedObjectArray.12, ptr %0, i64 %idxprom
  ret ptr %arrayidx
}

; Function Attrs: mustprogress nounwind uwtable
define linkonce_odr dso_local void @_ZN19BroadphaseRayTesterC2ER23btBroadphaseRayCallback(ptr noundef nonnull align 8 dereferenceable(16) %this, ptr noundef nonnull align 8 dereferenceable(40) %orgCallback) unnamed_addr #1 comdat align 2 {
entry:
  %this.addr = alloca ptr, align 8
  %orgCallback.addr = alloca ptr, align 8
  store ptr %this, ptr %this.addr, align 8
  store ptr %orgCallback, ptr %orgCallback.addr, align 8
  %this1 = load ptr, ptr %this.addr, align 8
  call void @_ZN6btDbvt8ICollideC2Ev(ptr noundef nonnull align 8 dereferenceable(8) %this1) #10
  store ptr getelementptr inbounds ({ [10 x ptr] }, ptr @_ZTV19BroadphaseRayTester, i32 0, i32 0, i32 2), ptr %this1, align 8
  %m_rayCallback = getelementptr inbounds %struct.BroadphaseRayTester, ptr %this1, i32 0, i32 1
  %0 = load ptr, ptr %orgCallback.addr, align 8
  store ptr %0, ptr %m_rayCallback, align 8
  ret void
}

; Function Attrs: mustprogress uwtable
define dso_local void @_ZN16btDbvtBroadphase7rayTestERK9btVector3S2_R23btBroadphaseRayCallbackS2_S2_(ptr noundef nonnull align 8 dereferenceable(256) %this, ptr noundef nonnull align 4 dereferenceable(16) %rayFrom, ptr noundef nonnull align 4 dereferenceable(16) %rayTo, ptr noundef nonnull align 8 dereferenceable(40) %rayCallback, ptr noundef nonnull align 4 dereferenceable(16) %aabbMin, ptr noundef nonnull align 4 dereferenceable(16) %aabbMax) unnamed_addr #2 align 2 personality ptr @__gxx_personality_v0 {
entry:
  %this.addr = alloca ptr, align 8
  %rayFrom.addr = alloca ptr, align 8
  %rayTo.addr = alloca ptr, align 8
  %rayCallback.addr = alloca ptr, align 8
  %aabbMin.addr = alloca ptr, align 8
  %aabbMax.addr = alloca ptr, align 8
  %callback = alloca %struct.BroadphaseRayTester, align 8
  %stack = alloca ptr, align 8
  %exn.slot = alloca ptr, align 8
  %ehselector.slot = alloca i32, align 4
  store ptr %this, ptr %this.addr, align 8
  store ptr %rayFrom, ptr %rayFrom.addr, align 8
  store ptr %rayTo, ptr %rayTo.addr, align 8
  store ptr %rayCallback, ptr %rayCallback.addr, align 8
  store ptr %aabbMin, ptr %aabbMin.addr, align 8
  store ptr %aabbMax, ptr %aabbMax.addr, align 8
  %this1 = load ptr, ptr %this.addr, align 8
  %0 = load ptr, ptr %rayCallback.addr, align 8
  call void @_ZN19BroadphaseRayTesterC2ER23btBroadphaseRayCallback(ptr noundef nonnull align 8 dereferenceable(16) %callback, ptr noundef nonnull align 8 dereferenceable(40) %0)
  %m_rayTestStacks = getelementptr inbounds %struct.btDbvtBroadphase, ptr %this1, i32 0, i32 21
  %call = invoke noundef nonnull align 8 dereferenceable(25) ptr @_ZN20btAlignedObjectArrayIS_IPK10btDbvtNodeEEixEi(ptr noundef nonnull align 8 dereferenceable(25) %m_rayTestStacks, i32 noundef 0)
          to label %invoke.cont unwind label %lpad

invoke.cont:                                      ; preds = %entry
  store ptr %call, ptr %stack, align 8
  %m_sets = getelementptr inbounds %struct.btDbvtBroadphase, ptr %this1, i32 0, i32 1
  %arrayidx = getelementptr inbounds [2 x %struct.btDbvt], ptr %m_sets, i64 0, i64 0
  %m_sets2 = getelementptr inbounds %struct.btDbvtBroadphase, ptr %this1, i32 0, i32 1
  %arrayidx3 = getelementptr inbounds [2 x %struct.btDbvt], ptr %m_sets2, i64 0, i64 0
  %m_root = getelementptr inbounds %struct.btDbvt, ptr %arrayidx3, i32 0, i32 0
  %1 = load ptr, ptr %m_root, align 8
  %2 = load ptr, ptr %rayFrom.addr, align 8
  %3 = load ptr, ptr %rayTo.addr, align 8
  %4 = load ptr, ptr %rayCallback.addr, align 8
  %m_rayDirectionInverse = getelementptr inbounds %struct.btBroadphaseRayCallback, ptr %4, i32 0, i32 1
  %5 = load ptr, ptr %rayCallback.addr, align 8
  %m_signs = getelementptr inbounds %struct.btBroadphaseRayCallback, ptr %5, i32 0, i32 2
  %arraydecay = getelementptr inbounds [3 x i32], ptr %m_signs, i64 0, i64 0
  %6 = load ptr, ptr %rayCallback.addr, align 8
  %m_lambda_max = getelementptr inbounds %struct.btBroadphaseRayCallback, ptr %6, i32 0, i32 3
  %7 = load float, ptr %m_lambda_max, align 4
  %8 = load ptr, ptr %aabbMin.addr, align 8
  %9 = load ptr, ptr %aabbMax.addr, align 8
  %10 = load ptr, ptr %stack, align 8
  invoke void @_ZNK6btDbvt15rayTestInternalEPK10btDbvtNodeRK9btVector3S5_S5_PjfS5_S5_R20btAlignedObjectArrayIS2_ERNS_8ICollideE(ptr noundef nonnull align 8 dereferenceable(64) %arrayidx, ptr noundef %1, ptr noundef nonnull align 4 dereferenceable(16) %2, ptr noundef nonnull align 4 dereferenceable(16) %3, ptr noundef nonnull align 4 dereferenceable(16) %m_rayDirectionInverse, ptr noundef %arraydecay, float noundef %7, ptr noundef nonnull align 4 dereferenceable(16) %8, ptr noundef nonnull align 4 dereferenceable(16) %9, ptr noundef nonnull align 8 dereferenceable(25) %10, ptr noundef nonnull align 8 dereferenceable(8) %callback)
          to label %invoke.cont4 unwind label %lpad

invoke.cont4:                                     ; preds = %invoke.cont
  %m_sets5 = getelementptr inbounds %struct.btDbvtBroadphase, ptr %this1, i32 0, i32 1
  %arrayidx6 = getelementptr inbounds [2 x %struct.btDbvt], ptr %m_sets5, i64 0, i64 1
  %m_sets7 = getelementptr inbounds %struct.btDbvtBroadphase, ptr %this1, i32 0, i32 1
  %arrayidx8 = getelementptr inbounds [2 x %struct.btDbvt], ptr %m_sets7, i64 0, i64 1
  %m_root9 = getelementptr inbounds %struct.btDbvt, ptr %arrayidx8, i32 0, i32 0
  %11 = load ptr, ptr %m_root9, align 8
  %12 = load ptr, ptr %rayFrom.addr, align 8
  %13 = load ptr, ptr %rayTo.addr, align 8
  %14 = load ptr, ptr %rayCallback.addr, align 8
  %m_rayDirectionInverse10 = getelementptr inbounds %struct.btBroadphaseRayCallback, ptr %14, i32 0, i32 1
  %15 = load ptr, ptr %rayCallback.addr, align 8
  %m_signs11 = getelementptr inbounds %struct.btBroadphaseRayCallback, ptr %15, i32 0, i32 2
  %arraydecay12 = getelementptr inbounds [3 x i32], ptr %m_signs11, i64 0, i64 0
  %16 = load ptr, ptr %rayCallback.addr, align 8
  %m_lambda_max13 = getelementptr inbounds %struct.btBroadphaseRayCallback, ptr %16, i32 0, i32 3
  %17 = load float, ptr %m_lambda_max13, align 4
  %18 = load ptr, ptr %aabbMin.addr, align 8
  %19 = load ptr, ptr %aabbMax.addr, align 8
  %20 = load ptr, ptr %stack, align 8
  invoke void @_ZNK6btDbvt15rayTestInternalEPK10btDbvtNodeRK9btVector3S5_S5_PjfS5_S5_R20btAlignedObjectArrayIS2_ERNS_8ICollideE(ptr noundef nonnull align 8 dereferenceable(64) %arrayidx6, ptr noundef %11, ptr noundef nonnull align 4 dereferenceable(16) %12, ptr noundef nonnull align 4 dereferenceable(16) %13, ptr noundef nonnull align 4 dereferenceable(16) %m_rayDirectionInverse10, ptr noundef %arraydecay12, float noundef %17, ptr noundef nonnull align 4 dereferenceable(16) %18, ptr noundef nonnull align 4 dereferenceable(16) %19, ptr noundef nonnull align 8 dereferenceable(25) %20, ptr noundef nonnull align 8 dereferenceable(8) %callback)
          to label %invoke.cont14 unwind label %lpad

invoke.cont14:                                    ; preds = %invoke.cont4
  call void @_ZN19BroadphaseRayTesterD2Ev(ptr noundef nonnull align 8 dereferenceable(16) %callback) #10
  ret void

lpad:                                             ; preds = %invoke.cont4, %invoke.cont, %entry
  %21 = landingpad { ptr, i32 }
          cleanup
  %22 = extractvalue { ptr, i32 } %21, 0
  store ptr %22, ptr %exn.slot, align 8
  %23 = extractvalue { ptr, i32 } %21, 1
  store i32 %23, ptr %ehselector.slot, align 4
  call void @_ZN19BroadphaseRayTesterD2Ev(ptr noundef nonnull align 8 dereferenceable(16) %callback) #10
  br label %eh.resume

eh.resume:                                        ; preds = %lpad
  %exn = load ptr, ptr %exn.slot, align 8
  %sel = load i32, ptr %ehselector.slot, align 4
  %lpad.val = insertvalue { ptr, i32 } poison, ptr %exn, 0
  %lpad.val15 = insertvalue { ptr, i32 } %lpad.val, i32 %sel, 1
  resume { ptr, i32 } %lpad.val15
}