; Function Attrs: mustprogress uwtable
define dso_local void @_ZN16btDbvtBroadphase7rayTestERK9btVector3S2_R23btBroadphaseRayCallbackS2_S2_(ptr noundef nonnull align 8 dereferenceable(256) %this, ptr noundef nonnull align 4 dereferenceable(16) %rayFrom, ptr noundef nonnull align 4 dereferenceable(16) %rayTo, ptr noundef nonnull align 8 dereferenceable(40) %rayCallback, ptr noundef nonnull align 4 dereferenceable(16) %aabbMin, ptr noundef nonnull align 4 dereferenceable(16) %aabbMax) unnamed_addr #0 align 2 personality ptr @__gxx_personality_v0 {
entry:
  %callback = alloca %struct.BroadphaseRayTester, align 8
  store ptr getelementptr inbounds ({ [10 x ptr] }, ptr @_ZTV19BroadphaseRayTester, i64 0, i32 0, i64 2), ptr %callback, align 8
  %m_rayCallback.i = getelementptr inbounds i8, ptr %callback, i64 8
  store ptr %rayCallback, ptr %m_rayCallback.i, align 8
  %m_data.i = getelementptr inbounds i8, ptr %this, i64 240
  %0 = load ptr, ptr %m_data.i, align 8
  %m_sets = getelementptr inbounds i8, ptr %this, i64 8
  %1 = load ptr, ptr %m_sets, align 8
  %m_rayDirectionInverse = getelementptr inbounds i8, ptr %rayCallback, i64 8
  %m_signs = getelementptr inbounds i8, ptr %rayCallback, i64 24
  %m_lambda_max = getelementptr inbounds i8, ptr %rayCallback, i64 36
  %2 = load float, ptr %m_lambda_max, align 4
  call void @_ZNK6btDbvt15rayTestInternalEPK10btDbvtNodeRK9btVector3S5_S5_PjfS5_S5_R20btAlignedObjectArrayIS2_ERNS_8ICollideE(ptr noundef nonnull align 8 dereferenceable(64) %m_sets, ptr noundef %1, ptr noundef nonnull align 4 dereferenceable(16) %rayFrom, ptr noundef nonnull align 4 dereferenceable(16) %rayTo, ptr noundef nonnull align 4 dereferenceable(16) %m_rayDirectionInverse, ptr noundef nonnull %m_signs, float noundef %2, ptr noundef nonnull align 4 dereferenceable(16) %aabbMin, ptr noundef nonnull align 4 dereferenceable(16) %aabbMax, ptr noundef nonnull align 8 dereferenceable(25) %0, ptr noundef nonnull align 8 dereferenceable(8) %callback)
  %arrayidx6 = getelementptr inbounds i8, ptr %this, i64 72
  %3 = load ptr, ptr %arrayidx6, align 8
  %4 = load float, ptr %m_lambda_max, align 4
  call void @_ZNK6btDbvt15rayTestInternalEPK10btDbvtNodeRK9btVector3S5_S5_PjfS5_S5_R20btAlignedObjectArrayIS2_ERNS_8ICollideE(ptr noundef nonnull align 8 dereferenceable(64) %arrayidx6, ptr noundef %3, ptr noundef nonnull align 4 dereferenceable(16) %rayFrom, ptr noundef nonnull align 4 dereferenceable(16) %rayTo, ptr noundef nonnull align 4 dereferenceable(16) %m_rayDirectionInverse, ptr noundef nonnull %m_signs, float noundef %4, ptr noundef nonnull align 4 dereferenceable(16) %aabbMin, ptr noundef nonnull align 4 dereferenceable(16) %aabbMax, ptr noundef nonnull align 8 dereferenceable(25) %0, ptr noundef nonnull align 8 dereferenceable(8) %callback)
  ret void
}